; Function Attrs: nounwind uwtable
define internal void @lv_canvas_destructor(ptr nocapture readnone %0, ptr noundef %1) #1 {
  %3 = getelementptr inbounds nuw i8, ptr %1, i64 120
  %4 = load ptr, ptr %3, align 8, !tbaa !3
  %5 = icmp eq ptr %4, null
  br i1 %5, label %7, label %6

6:                                                ; preds = %2
  tail call void @lv_image_cache_drop(ptr noundef nonnull %3) #5
  br label %7

7:                                                ; preds = %2, %6
  ret void
}